target datalayout = "e-m:e-p270:32:32-p271:32:32-p272:64:64-i64:64-i128:128-f80:128-n8:16:32:64-S128"
target triple = "x86_64-pc-linux-gnu"

%struct.rb_data_type_struct = type { ptr, %struct.anon, ptr, ptr, i64 }
%struct.anon = type { ptr, ptr, ptr, ptr, [1 x ptr] }

@ossl_evp_pkey_type = constant %struct.rb_data_type_struct { ptr @.str, %struct.anon { ptr null, ptr @ossl_evp_pkey_free, ptr null, ptr null, [1 x ptr] zeroinitializer }, ptr null, ptr null, i64 33 }, align 8
@rb_eRuntimeError = external global i64, align 8
@.str.4 = private unnamed_addr constant [25 x i8] c"PKEY wasn't initialized!\00", align 1
@GetPrivPKeyPtr.rbimpl_id = internal global i64 0, align 8
@.str.5 = private unnamed_addr constant [8 x i8] c"private\00", align 1
@id_private_q = internal global i64 0, align 8
@rb_eArgError = external global i64, align 8
@.str.6 = private unnamed_addr constant [22 x i8] c"private key is needed\00", align 1

; Function Attrs: inlinehint nounwind sspstrong willreturn memory(read) uwtable
define internal i64 @rb_intern_const(ptr noundef nonnull %0) #8 {
  %2 = alloca ptr, align 8
  %3 = alloca i64, align 8
  store ptr %0, ptr %2, align 8, !tbaa !22
  call void @llvm.lifetime.start.p0(i64 8, ptr %3) #19
  %4 = load ptr, ptr %2, align 8, !tbaa !22
  %5 = call i64 @strlen(ptr noundef %4) #23
  store i64 %5, ptr %3, align 8, !tbaa !12
  %6 = load ptr, ptr %2, align 8, !tbaa !22
  %7 = load i64, ptr %3, align 8, !tbaa !12
  %8 = call i64 @rb_intern2(ptr noundef %6, i64 noundef %7)
  call void @llvm.lifetime.end.p0(i64 8, ptr %3) #19
  ret i64 %8
}

; Function Attrs: inlinehint nounwind sspstrong willreturn memory(none) uwtable
define internal zeroext i1 @RB_TEST(i64 noundef %0) #6 {
  %2 = alloca i64, align 8
  store i64 %0, ptr %2, align 8, !tbaa !12
  %3 = load i64, ptr %2, align 8, !tbaa !12
  %4 = and i64 %3, -5
  %5 = icmp ne i64 %4, 0
  ret i1 %5
}

; Function Attrs: inlinehint nounwind sspstrong memory(argmem: readwrite, inaccessiblemem: readwrite) uwtable
define internal i64 @rbimpl_intern_const(ptr noundef nonnull %0, ptr noundef nonnull %1) #5 {
  %3 = alloca ptr, align 8
  %4 = alloca ptr, align 8
  store ptr %0, ptr %3, align 8, !tbaa !29
  store ptr %1, ptr %4, align 8, !tbaa !22
  br label %5

5:                                                ; preds = %10, %2
  %6 = load ptr, ptr %3, align 8, !tbaa !29
  %7 = load i64, ptr %6, align 8, !tbaa !12
  %8 = icmp ne i64 %7, 0
  %9 = xor i1 %8, true
  br i1 %9, label %10, label %14

10:                                               ; preds = %5
  %11 = load ptr, ptr %4, align 8, !tbaa !22
  %12 = call i64 @rb_intern_const(ptr noundef %11) #23
  %13 = load ptr, ptr %3, align 8, !tbaa !29
  store i64 %12, ptr %13, align 8, !tbaa !12
  br label %5, !llvm.loop !31

14:                                               ; preds = %5
  %15 = load ptr, ptr %3, align 8, !tbaa !29
  %16 = load i64, ptr %15, align 8, !tbaa !12
  ret i64 %16
}

; Function Attrs: nounwind sspstrong uwtable
define ptr @GetPrivPKeyPtr(i64 noundef %0) #0 {
  %2 = alloca ptr, align 8
  %3 = alloca i64, align 8
  %4 = alloca ptr, align 8
  %5 = alloca i64, align 8
  %6 = alloca i32, align 4
  store i64 %0, ptr %3, align 8, !tbaa !12
  call void @llvm.lifetime.start.p0(i64 8, ptr %4) #19
  br label %7

7:                                                ; preds = %1
  %8 = load i64, ptr %3, align 8, !tbaa !12
  %9 = call ptr @rb_check_typeddata(i64 noundef %8, ptr noundef @ossl_evp_pkey_type)
  store ptr %9, ptr %4, align 8, !tbaa !10
  %10 = load ptr, ptr %4, align 8, !tbaa !10
  %11 = icmp ne ptr %10, null
  br i1 %11, label %14, label %12

12:                                               ; preds = %7
  %13 = load i64, ptr @rb_eRuntimeError, align 8, !tbaa !12
  call void (i64, ptr, ...) @rb_raise(i64 noundef %13, ptr noundef @.str.4) #20
  unreachable

14:                                               ; preds = %7
  br label %15

15:                                               ; preds = %14
  br label %16

16:                                               ; preds = %15
  %17 = load i64, ptr %3, align 8, !tbaa !12
  %18 = call i64 @rbimpl_intern_const(ptr noundef @GetPrivPKeyPtr.rbimpl_id, ptr noundef @.str.5) #21
  store i64 %18, ptr %5, align 8, !tbaa !12
  %19 = load i64, ptr %5, align 8, !tbaa !12
  %20 = call i64 @rb_attr_get(i64 noundef %17, i64 noundef %19)
  %21 = icmp eq i64 %20, 20
  br i1 %21, label %22, label %24

22:                                               ; preds = %16
  %23 = load ptr, ptr %4, align 8, !tbaa !10
  store ptr %23, ptr %2, align 8
  store i32 1, ptr %6, align 4
  br label %40

24:                                               ; preds = %16
  %25 = load i64, ptr %3, align 8, !tbaa !12
  %26 = load i64, ptr @id_private_q, align 8, !tbaa !12
  %27 = call i32 @rb_respond_to(i64 noundef %25, i64 noundef %26)
  %28 = icmp ne i32 %27, 0
  br i1 %28, label %31, label %29

29:                                               ; preds = %24
  %30 = load ptr, ptr %4, align 8, !tbaa !10
  store ptr %30, ptr %2, align 8
  store i32 1, ptr %6, align 4
  br label %40

31:                                               ; preds = %24
  %32 = load i64, ptr %3, align 8, !tbaa !12
  %33 = load i64, ptr @id_private_q, align 8, !tbaa !12
  %34 = call i64 @rb_funcallv(i64 noundef %32, i64 noundef %33, i32 noundef 0, ptr noundef null)
  %35 = call zeroext i1 @RB_TEST(i64 noundef %34) #22
  br i1 %35, label %36, label %38

36:                                               ; preds = %31
  %37 = load ptr, ptr %4, align 8, !tbaa !10
  store ptr %37, ptr %2, align 8
  store i32 1, ptr %6, align 4
  br label %40

38:                                               ; preds = %31
  %39 = load i64, ptr @rb_eArgError, align 8, !tbaa !12
  call void (i64, ptr, ...) @rb_raise(i64 noundef %39, ptr noundef @.str.6) #20
  unreachable

40:                                               ; preds = %36, %29, %22
  call void @llvm.lifetime.end.p0(i64 8, ptr %4) #19
  %41 = load ptr, ptr %2, align 8
  ret ptr %41
}