; Function Attrs: nounwind sspstrong uwtable
define nonnull ptr @GetPrivPKeyPtr(i64 noundef %0) local_unnamed_addr #0 {
  %2 = tail call ptr @rb_check_typeddata(i64 noundef %0, ptr noundef nonnull @ossl_evp_pkey_type) #8
  %.not = icmp eq ptr %2, null
  br i1 %.not, label %3, label %5

3:                                                ; preds = %1
  %4 = load i64, ptr @rb_eRuntimeError, align 8, !tbaa !10
  tail call void (i64, ptr, ...) @rb_raise(i64 noundef %4, ptr noundef nonnull @.str.4) #9
  unreachable

5:                                                ; preds = %1
  %.pr.i = load i64, ptr @GetPrivPKeyPtr.rbimpl_id, align 8, !tbaa !10
  %.not4.i = icmp eq i64 %.pr.i, 0
  br i1 %.not4.i, label %.lr.ph.i, label %rbimpl_intern_const.exit

.lr.ph.i:                                         ; preds = %5, %.lr.ph.i
  %6 = tail call i64 @rb_intern2(ptr noundef nonnull @.str.5, i64 noundef 7) #8
  store i64 %6, ptr @GetPrivPKeyPtr.rbimpl_id, align 8, !tbaa !10
  %.not.i = icmp eq i64 %6, 0
  br i1 %.not.i, label %.lr.ph.i, label %rbimpl_intern_const.exit, !llvm.loop !24

rbimpl_intern_const.exit:                         ; preds = %.lr.ph.i, %5
  %.lcssa.i = phi i64 [ %.pr.i, %5 ], [ %6, %.lr.ph.i ]
  %7 = tail call i64 @rb_attr_get(i64 noundef %0, i64 noundef %.lcssa.i) #8
  %8 = icmp eq i64 %7, 20
  br i1 %8, label %18, label %9

9:                                                ; preds = %rbimpl_intern_const.exit
  %10 = load i64, ptr @id_private_q, align 8, !tbaa !10
  %11 = tail call i32 @rb_respond_to(i64 noundef %0, i64 noundef %10) #8
  %.not9 = icmp eq i32 %11, 0
  br i1 %.not9, label %18, label %12

12:                                               ; preds = %9
  %13 = load i64, ptr @id_private_q, align 8, !tbaa !10
  %14 = tail call i64 @rb_funcallv(i64 noundef %0, i64 noundef %13, i32 noundef 0, ptr noundef null) #8
  %15 = and i64 %14, -5
  %.not10 = icmp eq i64 %15, 0
  br i1 %.not10, label %16, label %18

16:                                               ; preds = %12
  %17 = load i64, ptr @rb_eArgError, align 8, !tbaa !10
  tail call void (i64, ptr, ...) @rb_raise(i64 noundef %17, ptr noundef nonnull @.str.6) #9
  unreachable

18:                                               ; preds = %12, %9, %rbimpl_intern_const.exit
  ret ptr %2
}